target datalayout = "e-m:e-p270:32:32-p271:32:32-p272:64:64-i64:64-i128:128-f80:128-n8:16:32:64-S128"
target triple = "x86_64-pc-linux-gnu"

%struct.dt_pthread_mutex_t = type { %union.pthread_mutex_t }
%union.pthread_mutex_t = type { %struct.__pthread_mutex_s }
%struct.__pthread_mutex_s = type { i32, i32, i32, i32, i32, i16, i16, %struct.__pthread_internal_list }
%struct.__pthread_internal_list = type { ptr, ptr }
%struct.dt_dev_pixelpipe_t = type { %struct.dt_dev_pixelpipe_cache_t, i32, i64, ptr, i32, i32, float, i32, i32, [12 x i8], %struct.dt_iop_buffer_dsc_t, ptr, ptr, ptr, ptr, i32, i32, i32, i32, ptr, i64, i32, i32, float, float, float, i64, %struct.dt_pthread_mutex_t, %struct.dt_pthread_mutex_t, %struct.dt_pthread_mutex_t, i32, i32, i32, %struct.dt_dev_detail_mask_t, i32, i32, i32, i32, i32, i32, i32, i32, i32, i32, i32, i32, i32, i32, [8 x i8], %struct.dt_image_t, i32, ptr, i32, ptr, ptr, ptr, i32, ptr, i64, [8 x i8] }
%struct.dt_dev_pixelpipe_cache_t = type { i32, i64, i64, ptr, ptr, ptr, ptr, ptr, ptr, i64, i32, i64, i64, i32, i32, i32 }
%struct.dt_iop_buffer_dsc_t = type { i32, i32, i32, [6 x [6 x i8]], %struct.anon, [12 x i8], %struct.anon.0, [4 x float], i32, [12 x i8] }
%struct.anon = type { i16, i16 }
%struct.anon.0 = type { i32, [12 x i8], [4 x float] }
%struct.dt_dev_detail_mask_t = type { %struct.dt_iop_roi_t, i64, ptr }
%struct.dt_iop_roi_t = type { i32, i32, i32, i32, float }
%struct.dt_image_t = type { i32, i32, float, float, float, float, float, float, float, [64 x i8], [64 x i8], [128 x i8], [64 x i8], [64 x i8], [64 x i8], [64 x i8], i64, i32, %union.dt_image_correction_data_t, [64 x i8], [64 x i8], [64 x i8], [128 x i8], i32, [256 x i8], i32, i32, i32, i32, i32, i32, i32, i32, i32, i32, float, i32, i32, i32, i32, i32, i32, i64, i64, i64, i64, i32, [12 x i8], %struct.dt_iop_buffer_dsc_t, [9 x float], ptr, i32, i32, %struct.dt_image_raw_parameters_t, %struct.dt_image_geoloc_t, %struct._color_harmony_t, i16, [4 x i16], i32, i32, float, float, [4 x float], [4 x [3 x float]], [4 x float], ptr, ptr, i32, i32, [8 x i8] }
%union.dt_image_correction_data_t = type { %struct.anon.2 }
%struct.anon.2 = type { i32, float, [11 x float], [11 x float], [11 x float], [11 x float], [11 x float] }
%struct.dt_image_raw_parameters_t = type { i32 }
%struct.dt_image_geoloc_t = type { double, double, double }
%struct._color_harmony_t = type { i32, i32, i32 }
%struct.dt_develop_t = type { i32, i32, i32, ptr, double, double, i32, i32, i32, i32, i32, double, i32, i32, i32, ptr, ptr, [8 x i8], %struct.dt_image_t, i32, i32, %struct.dt_pthread_mutex_t, i32, ptr, i32, ptr, i32, ptr, ptr, i32, ptr, ptr, ptr, ptr, i32, i32, ptr, ptr, ptr, ptr, i32, i32, i32, float, float, ptr, i32, %struct.anon.8, %struct.dt_dev_chroma_t, %struct.anon.11, %struct.anon.12, %struct.anon.13, %struct.anon.14, %struct.anon.15, %struct.anon.16, ptr, ptr, %struct.dt_dev_viewport_t, %struct.dt_dev_viewport_t, i32, i32, i32, ptr, [8 x i8] }
%struct.anon.8 = type { %struct.dt_dev_proxy_exposure_t, ptr, %struct.anon.9, %struct.anon.10 }
%struct.dt_dev_proxy_exposure_t = type { ptr, ptr, ptr, ptr }
%struct.anon.9 = type { ptr, ptr, ptr, ptr, ptr, ptr, ptr, ptr, ptr }
%struct.anon.10 = type { ptr, ptr, ptr, ptr, ptr }
%struct.dt_dev_chroma_t = type { ptr, ptr, [4 x double], [4 x double], [4 x double], i32 }
%struct.anon.11 = type { ptr, ptr, ptr }
%struct.anon.12 = type { ptr, ptr, i32, i32, float, float, i32 }
%struct.anon.13 = type { ptr, ptr, i32, i32, i32, float }
%struct.anon.14 = type { ptr }
%struct.anon.15 = type { ptr, i32 }
%struct.anon.16 = type { ptr, ptr, ptr }
%struct.dt_dev_viewport_t = type { ptr, i32, i32, i32, i32, i32, double, double, double, i32, i32, i32, float, float, float, ptr }

; Function Attrs: nounwind uwtable
define void @dt_dev_pixelpipe_rebuild(ptr noundef %0) #0 {
  %2 = alloca ptr, align 8
  store ptr %0, ptr %2, align 8, !tbaa !192
  %3 = load ptr, ptr %2, align 8, !tbaa !192
  %4 = getelementptr inbounds nuw %struct.dt_develop_t, ptr %3, i32 0, i32 57
  %5 = getelementptr inbounds nuw %struct.dt_dev_viewport_t, ptr %4, i32 0, i32 15
  %6 = load ptr, ptr %5, align 16, !tbaa !206
  %7 = getelementptr inbounds nuw %struct.dt_dev_pixelpipe_t, ptr %6, i32 0, i32 15
  %8 = load i32, ptr %7, align 16, !tbaa !155
  %9 = or i32 %8, 2
  store i32 %9, ptr %7, align 16, !tbaa !155
  %10 = load ptr, ptr %2, align 8, !tbaa !192
  %11 = getelementptr inbounds nuw %struct.dt_develop_t, ptr %10, i32 0, i32 16
  %12 = load ptr, ptr %11, align 16, !tbaa !222
  %13 = getelementptr inbounds nuw %struct.dt_dev_pixelpipe_t, ptr %12, i32 0, i32 15
  %14 = load i32, ptr %13, align 16, !tbaa !155
  %15 = or i32 %14, 2
  store i32 %15, ptr %13, align 16, !tbaa !155
  %16 = load ptr, ptr %2, align 8, !tbaa !192
  %17 = getelementptr inbounds nuw %struct.dt_develop_t, ptr %16, i32 0, i32 58
  %18 = getelementptr inbounds nuw %struct.dt_dev_viewport_t, ptr %17, i32 0, i32 15
  %19 = load ptr, ptr %18, align 8, !tbaa !223
  %20 = getelementptr inbounds nuw %struct.dt_dev_pixelpipe_t, ptr %19, i32 0, i32 15
  %21 = load i32, ptr %20, align 16, !tbaa !155
  %22 = or i32 %21, 2
  store i32 %22, ptr %20, align 16, !tbaa !155
  %23 = load ptr, ptr %2, align 8, !tbaa !192
  %24 = getelementptr inbounds nuw %struct.dt_develop_t, ptr %23, i32 0, i32 57
  %25 = getelementptr inbounds nuw %struct.dt_dev_viewport_t, ptr %24, i32 0, i32 15
  %26 = load ptr, ptr %25, align 16, !tbaa !206
  %27 = getelementptr inbounds nuw %struct.dt_dev_pixelpipe_t, ptr %26, i32 0, i32 1
  store i32 1, ptr %27, align 8, !tbaa !166
  %28 = load ptr, ptr %2, align 8, !tbaa !192
  %29 = getelementptr inbounds nuw %struct.dt_develop_t, ptr %28, i32 0, i32 16
  %30 = load ptr, ptr %29, align 16, !tbaa !222
  %31 = getelementptr inbounds nuw %struct.dt_dev_pixelpipe_t, ptr %30, i32 0, i32 1
  store i32 1, ptr %31, align 8, !tbaa !166
  %32 = load ptr, ptr %2, align 8, !tbaa !192
  %33 = getelementptr inbounds nuw %struct.dt_develop_t, ptr %32, i32 0, i32 58
  %34 = getelementptr inbounds nuw %struct.dt_dev_viewport_t, ptr %33, i32 0, i32 15
  %35 = load ptr, ptr %34, align 8, !tbaa !223
  %36 = getelementptr inbounds nuw %struct.dt_dev_pixelpipe_t, ptr %35, i32 0, i32 1
  store i32 1, ptr %36, align 8, !tbaa !166
  %37 = load ptr, ptr %2, align 8, !tbaa !192
  call void @dt_dev_invalidate_all(ptr noundef %37)
  ret void
}