; Function Attrs: nounwind uwtable
define void @dt_dev_pixelpipe_rebuild(ptr noundef %0) local_unnamed_addr #0 {
  %2 = getelementptr inbounds nuw i8, ptr %0, i64 2704
  %3 = load ptr, ptr %2, align 16, !tbaa !179
  %4 = getelementptr inbounds nuw i8, ptr %3, i64 336
  %5 = load i32, ptr %4, align 16, !tbaa !195
  %6 = or i32 %5, 2
  store i32 %6, ptr %4, align 16, !tbaa !195
  %7 = getelementptr inbounds nuw i8, ptr %0, i64 96
  %8 = load ptr, ptr %7, align 16, !tbaa !196
  %9 = getelementptr inbounds nuw i8, ptr %8, i64 336
  %10 = load i32, ptr %9, align 16, !tbaa !195
  %11 = or i32 %10, 2
  store i32 %11, ptr %9, align 16, !tbaa !195
  %12 = getelementptr inbounds nuw i8, ptr %0, i64 2792
  %13 = load ptr, ptr %12, align 8, !tbaa !197
  %14 = getelementptr inbounds nuw i8, ptr %13, i64 336
  %15 = load i32, ptr %14, align 16, !tbaa !195
  %16 = or i32 %15, 2
  store i32 %16, ptr %14, align 16, !tbaa !195
  %17 = getelementptr inbounds nuw i8, ptr %3, i64 120
  store i32 1, ptr %17, align 8, !tbaa !147
  %18 = getelementptr inbounds nuw i8, ptr %8, i64 120
  store i32 1, ptr %18, align 8, !tbaa !147
  %19 = getelementptr inbounds nuw i8, ptr %13, i64 120
  store i32 1, ptr %19, align 8, !tbaa !147
  tail call void @dt_dev_invalidate_all(ptr noundef %0) #27
  ret void
}